; Function Attrs: mustprogress uwtable
define noundef ptr @Z3_mk_context_rc(ptr noundef %0) local_unnamed_addr #3 personality ptr @__gxx_personality_v0 {
  %2 = atomicrmw xchg ptr @g_z3_log_enabled, i8 0 seq_cst, align 1
  %3 = trunc i8 %2 to i1
  br i1 %3, label %4, label %7

4:                                                ; preds = %1
  invoke void @_Z20log_Z3_mk_context_rcP10_Z3_config(ptr noundef %0)
          to label %7 unwind label %5

5:                                                ; preds = %8, %7, %4
  %6 = landingpad { ptr, i32 }
          cleanup
          catch ptr @_ZTI12z3_exception
  br label %18

7:                                                ; preds = %4, %1
  invoke void @_ZN6memory10initializeEm(i64 noundef 4294967295)
          to label %8 unwind label %5

8:                                                ; preds = %7
  invoke void @_Z23set_default_exit_action11exit_action(i32 noundef 1)
          to label %9 unwind label %5

9:                                                ; preds = %8
  %10 = invoke noalias noundef ptr @_ZN6memory8allocateEm(i64 noundef 3056)
          to label %11 unwind label %14

11:                                               ; preds = %9
  invoke void @_ZN3api7contextC2EP18ast_context_paramsb(ptr noundef nonnull align 8 dereferenceable(3056) %10, ptr noundef %0, i1 noundef zeroext true)
          to label %12 unwind label %14

12:                                               ; preds = %11
  br i1 %3, label %13, label %_ZN10z3_log_ctxD2Ev.exit, !prof !442

13:                                               ; preds = %12
  invoke void @_Z4SetRPKv(ptr noundef nonnull %10)
          to label %17 unwind label %.thread18

14:                                               ; preds = %11, %9
  %15 = landingpad { ptr, i32 }
          cleanup
          catch ptr @_ZTI12z3_exception
  br label %18

.thread18:                                        ; preds = %13
  %16 = landingpad { ptr, i32 }
          cleanup
          catch ptr @_ZTI12z3_exception
  %.01020 = extractvalue { ptr, i32 } %16, 1
  br label %19

17:                                               ; preds = %13
  store atomic i8 1, ptr @g_z3_log_enabled seq_cst, align 1
  br label %_ZN10z3_log_ctxD2Ev.exit

18:                                               ; preds = %14, %5
  %.pn.pn = phi { ptr, i32 } [ %6, %5 ], [ %15, %14 ]
  %.010 = extractvalue { ptr, i32 } %.pn.pn, 1
  br i1 %3, label %19, label %_ZN10z3_log_ctxD2Ev.exit14, !prof !549

19:                                               ; preds = %.thread18, %18
  %.01024 = phi i32 [ %.01020, %.thread18 ], [ %.010, %18 ]
  %.pn.pn22 = phi { ptr, i32 } [ %16, %.thread18 ], [ %.pn.pn, %18 ]
  store atomic i8 1, ptr @g_z3_log_enabled seq_cst, align 1
  br label %_ZN10z3_log_ctxD2Ev.exit14

_ZN10z3_log_ctxD2Ev.exit14:                       ; preds = %18, %19
  %.01023 = phi i32 [ %.010, %18 ], [ %.01024, %19 ]
  %.pn.pn21 = phi { ptr, i32 } [ %.pn.pn, %18 ], [ %.pn.pn22, %19 ]
  %20 = tail call i32 @llvm.eh.typeid.for.p0(ptr nonnull @_ZTI12z3_exception) #28
  %21 = icmp eq i32 %.01023, %20
  br i1 %21, label %22, label %24

22:                                               ; preds = %_ZN10z3_log_ctxD2Ev.exit14
  %.09 = extractvalue { ptr, i32 } %.pn.pn21, 0
  %23 = tail call ptr @__cxa_begin_catch(ptr %.09) #28
  tail call void @__cxa_end_catch()
  br label %_ZN10z3_log_ctxD2Ev.exit

_ZN10z3_log_ctxD2Ev.exit:                         ; preds = %17, %12, %22
  %.0 = phi ptr [ null, %22 ], [ %10, %12 ], [ %10, %17 ]
  ret ptr %.0

24:                                               ; preds = %_ZN10z3_log_ctxD2Ev.exit14
  resume { ptr, i32 } %.pn.pn21
}